; Function Attrs: mustprogress nounwind uwtable
define internal void @_ZN12_GLOBAL__N_117AArch64PassConfig15addPreEmitPass2Ev(ptr noundef nonnull align 8 dereferenceable(134) %0) unnamed_addr #0 align 2 {
  %2 = alloca %"class.std::function.725", align 8
  call void @llvm.memset.p0.i64(ptr noundef nonnull align 8 dereferenceable(32) %2, i8 0, i64 32, i1 false)
  %3 = call noundef ptr @_ZN4llvm26createUnpackMachineBundlesESt8functionIFbRKNS_15MachineFunctionEEE(ptr noundef nonnull %2) #21
  call void @_ZN4llvm16TargetPassConfig7addPassEPNS_4PassE(ptr noundef nonnull align 8 dereferenceable(134) %0, ptr noundef %3) #21
  %4 = getelementptr inbounds nuw i8, ptr %2, i64 16
  %5 = load ptr, ptr %4, align 8
  %.not.i.i = icmp eq ptr %5, null
  br i1 %.not.i.i, label %_ZNSt8functionIFbRKN4llvm15MachineFunctionEEED2Ev.exit, label %6

6:                                                ; preds = %1
  %7 = call noundef zeroext i1 %5(ptr noundef nonnull align 8 dereferenceable(16) %2, ptr noundef nonnull align 8 dereferenceable(16) %2, i32 noundef 3) #21
  br label %_ZNSt8functionIFbRKN4llvm15MachineFunctionEEED2Ev.exit

_ZNSt8functionIFbRKN4llvm15MachineFunctionEEED2Ev.exit: ; preds = %1, %6
  ret void
}